target datalayout = "e-m:e-p270:32:32-p271:32:32-p272:64:64-i64:64-i128:128-f80:128-n8:16:32:64-S128"
target triple = "x86_64-pc-linux-gnu"

%"class.std::shared_ptr" = type { %"class.std::__shared_ptr" }
%"class.std::__shared_ptr" = type { ptr, %"class.std::__shared_count" }
%"class.std::__shared_count" = type { ptr }
%"class.open_spiel::dots_and_boxes::DotsAndBoxesState" = type <{ %"class.open_spiel::State.base", [4 x i8], %"class.std::vector.9", %"class.std::vector.9", %"class.std::vector.9", i32, i32, i32, i32, i32, i32, %"struct.std::array", i8, [7 x i8] }>
%"class.open_spiel::State.base" = type <{ ptr, %"class.std::shared_ptr", i32, i32, %"class.std::vector", i32 }>
%"class.std::vector" = type { %"struct.std::_Vector_base" }
%"struct.std::_Vector_base" = type { %"struct.std::_Vector_base<open_spiel::State::PlayerAction, std::allocator<open_spiel::State::PlayerAction>>::_Vector_impl" }
%"struct.std::_Vector_base<open_spiel::State::PlayerAction, std::allocator<open_spiel::State::PlayerAction>>::_Vector_impl" = type { %"struct.std::_Vector_base<open_spiel::State::PlayerAction, std::allocator<open_spiel::State::PlayerAction>>::_Vector_impl_data" }
%"struct.std::_Vector_base<open_spiel::State::PlayerAction, std::allocator<open_spiel::State::PlayerAction>>::_Vector_impl_data" = type { ptr, ptr, ptr }
%"class.std::vector.9" = type { %"struct.std::_Vector_base.10" }
%"struct.std::_Vector_base.10" = type { %"struct.std::_Vector_base<open_spiel::dots_and_boxes::CellState, std::allocator<open_spiel::dots_and_boxes::CellState>>::_Vector_impl" }
%"struct.std::_Vector_base<open_spiel::dots_and_boxes::CellState, std::allocator<open_spiel::dots_and_boxes::CellState>>::_Vector_impl" = type { %"struct.std::_Vector_base<open_spiel::dots_and_boxes::CellState, std::allocator<open_spiel::dots_and_boxes::CellState>>::_Vector_impl_data" }
%"struct.std::_Vector_base<open_spiel::dots_and_boxes::CellState, std::allocator<open_spiel::dots_and_boxes::CellState>>::_Vector_impl_data" = type { ptr, ptr, ptr }
%"struct.std::array" = type { [2 x i32] }

; Function Attrs: mustprogress nounwind uwtable
define noundef zeroext i1 @_ZNK10open_spiel14dots_and_boxes17DotsAndBoxesState6IsFullEv(ptr noundef nonnull align 8 dereferenceable(169) %0) #5 align 2 {
  %2 = alloca ptr, align 8
  store ptr %0, ptr %2, align 8
  %3 = load ptr, ptr %2, align 8
  %4 = getelementptr inbounds nuw %"class.open_spiel::dots_and_boxes::DotsAndBoxesState", ptr %3, i32 0, i32 7
  %5 = load i32, ptr %4, align 8
  %6 = getelementptr inbounds nuw %"class.open_spiel::dots_and_boxes::DotsAndBoxesState", ptr %3, i32 0, i32 8
  %7 = load i32, ptr %6, align 4
  %8 = add nsw i32 %7, 1
  %9 = getelementptr inbounds nuw %"class.open_spiel::dots_and_boxes::DotsAndBoxesState", ptr %3, i32 0, i32 9
  %10 = load i32, ptr %9, align 8
  %11 = mul nsw i32 %8, %10
  %12 = getelementptr inbounds nuw %"class.open_spiel::dots_and_boxes::DotsAndBoxesState", ptr %3, i32 0, i32 8
  %13 = load i32, ptr %12, align 4
  %14 = getelementptr inbounds nuw %"class.open_spiel::dots_and_boxes::DotsAndBoxesState", ptr %3, i32 0, i32 9
  %15 = load i32, ptr %14, align 8
  %16 = add nsw i32 %15, 1
  %17 = mul nsw i32 %13, %16
  %18 = add nsw i32 %11, %17
  %19 = icmp eq i32 %5, %18
  ret i1 %19
}