; Function Attrs: mustprogress nofree norecurse nosync nounwind willreturn memory(argmem: read) uwtable
define noundef zeroext i1 @_ZNK10open_spiel14dots_and_boxes17DotsAndBoxesState6IsFullEv(ptr nocapture noundef nonnull readonly align 8 dereferenceable(169) %0) local_unnamed_addr #7 align 2 {
  %2 = getelementptr inbounds nuw i8, ptr %0, i64 144
  %3 = load i32, ptr %2, align 8
  %4 = getelementptr inbounds nuw i8, ptr %0, i64 148
  %5 = load i32, ptr %4, align 4
  %6 = add nsw i32 %5, 1
  %7 = getelementptr inbounds nuw i8, ptr %0, i64 152
  %8 = load i32, ptr %7, align 8
  %9 = mul nsw i32 %6, %8
  %10 = add nsw i32 %8, 1
  %11 = mul nsw i32 %10, %5
  %12 = add nsw i32 %11, %9
  %13 = icmp eq i32 %3, %12
  ret i1 %13
}